target datalayout = "e-m:e-p270:32:32-p271:32:32-p272:64:64-i64:64-i128:128-f80:128-n8:16:32:64-S128"
target triple = "x86_64-pc-linux-gnu"

%struct._zend_executor_globals = type { %struct._zval_struct, %struct._zval_struct, [32 x ptr], ptr, ptr, %struct._zend_array, %struct._zend_array, ptr, i32, i8, %struct._zval_struct, i32, ptr, ptr, ptr, ptr, ptr, ptr, i64, ptr, ptr, i32, ptr, i32, i64, i32, i32, i32, i8, i8, %struct.zend_atomic_bool_s, %struct.zend_atomic_bool_s, ptr, i64, ptr, ptr, %struct._zend_array, %struct._zend_array, i32, i8, %struct._zval_struct, %struct._zval_struct, %struct._zend_stack, %struct._zend_stack, %struct._zend_stack, ptr, i32, i32, i64, ptr, ptr, ptr, %struct._zend_objects_store, %struct._zend_lazy_objects_store, ptr, ptr, ptr, [3 x %struct._zend_op], ptr, i8, i8, i64, i32, i32, ptr, [16 x %struct._HashTableIterator], ptr, %union._zend_function, %struct._zend_op, %struct._zend_array, i64, %struct.zend_get_gc_buffer, ptr, ptr, ptr, i64, i8, i32, ptr, ptr, i64, %struct._zend_call_stack, i64, i64, %struct._zend_strtod_state, [6 x ptr] }
%struct.zend_atomic_bool_s = type { i8 }
%struct._zval_struct = type { %union._zend_value, %union.anon, %union.anon.2 }
%union._zend_value = type { i64 }
%union.anon = type { i32 }
%union.anon.2 = type { i32 }
%struct._zend_stack = type { i32, i32, i32, ptr }
%struct._zend_objects_store = type { ptr, i32, i32, i32 }
%struct._zend_lazy_objects_store = type { %struct._zend_array }
%struct._HashTableIterator = type { ptr, i32, i32 }
%union._zend_function = type { %struct._zend_op_array }
%struct._zend_op_array = type { i8, [3 x i8], i32, ptr, ptr, ptr, i32, i32, ptr, ptr, ptr, ptr, i32, ptr, i32, i32, i32, ptr, ptr, ptr, ptr, ptr, i32, i32, ptr, ptr, ptr, i32, i32, i32, i32, ptr, ptr, [6 x ptr] }
%struct._zend_op = type { ptr, %union._znode_op, %union._znode_op, %union._znode_op, i32, i32, i8, i8, i8, i8 }
%union._znode_op = type { i32 }
%struct._zend_array = type { %struct._zend_refcounted_h, %union.anon.4, i32, %union.anon.6, i32, i32, i32, i32, i64, ptr }
%struct._zend_refcounted_h = type { i32, %union.anon.3 }
%union.anon.3 = type { i32 }
%union.anon.4 = type { i32 }
%union.anon.6 = type { ptr }
%struct.zend_get_gc_buffer = type { ptr, ptr, ptr }
%struct._zend_call_stack = type { ptr, i64 }
%struct._zend_strtod_state = type { [8 x ptr], ptr, ptr }
%struct._zend_fcall_info_cache = type { ptr, ptr, ptr, ptr, ptr }
%struct._zend_llist = type { ptr, ptr, i64, i64, ptr, i8, ptr }
%struct._zend_execute_data = type { ptr, ptr, ptr, ptr, %struct._zval_struct, ptr, ptr, ptr, ptr }
%struct._php_sqlite3_db_object = type { i8, i8, ptr, ptr, ptr, %struct._zend_fcall_info_cache, %struct._zend_llist, %struct._zend_object }
%struct._zend_object = type { %struct._zend_refcounted_h, i32, i32, ptr, ptr, ptr, [1 x %struct._zval_struct] }

@executor_globals = external global %struct._zend_executor_globals, align 8
@.str.8 = private unnamed_addr constant [75 x i8] c"The SQLite3 object has not been correctly initialised or is already closed\00", align 1
@.str.27 = private unnamed_addr constant [5 x i8] c"main\00", align 1
@.str.34 = private unnamed_addr constant [5 x i8] c"O|pp\00", align 1
@php_sqlite3_sc_entry = internal global ptr null, align 8
@.str.35 = private unnamed_addr constant [39 x i8] c"Backup failed: source database is busy\00", align 1
@.str.36 = private unnamed_addr constant [41 x i8] c"Backup failed: source database is locked\00", align 1
@.str.37 = private unnamed_addr constant [18 x i8] c"Backup failed: %s\00", align 1

; Function Attrs: inlinehint nounwind uwtable
define internal ptr @php_sqlite3_db_from_obj(ptr noundef %0) #2 {
  %2 = alloca ptr, align 8
  store ptr %0, ptr %2, align 8, !tbaa !67
  %3 = load ptr, ptr %2, align 8, !tbaa !67
  %4 = getelementptr inbounds i8, ptr %3, i64 -128
  ret ptr %4
}

; Function Attrs: nounwind uwtable
define hidden void @zim_SQLite3_backup(ptr noundef %0, ptr noundef %1) #0 {
  %3 = alloca ptr, align 8
  %4 = alloca ptr, align 8
  %5 = alloca ptr, align 8
  %6 = alloca ptr, align 8
  %7 = alloca ptr, align 8
  %8 = alloca ptr, align 8
  %9 = alloca i64, align 8
  %10 = alloca i64, align 8
  %11 = alloca ptr, align 8
  %12 = alloca ptr, align 8
  %13 = alloca ptr, align 8
  %14 = alloca i32, align 4
  %15 = alloca i32, align 4
  store ptr %0, ptr %3, align 8, !tbaa !4
  store ptr %1, ptr %4, align 8, !tbaa !9
  call void @llvm.lifetime.start.p0(i64 8, ptr %5) #15
  call void @llvm.lifetime.start.p0(i64 8, ptr %6) #15
  call void @llvm.lifetime.start.p0(i64 8, ptr %7) #15
  store ptr @.str.27, ptr %7, align 8, !tbaa !62
  call void @llvm.lifetime.start.p0(i64 8, ptr %8) #15
  store ptr @.str.27, ptr %8, align 8, !tbaa !62
  call void @llvm.lifetime.start.p0(i64 8, ptr %9) #15
  call void @llvm.lifetime.start.p0(i64 8, ptr %10) #15
  call void @llvm.lifetime.start.p0(i64 8, ptr %11) #15
  %16 = load ptr, ptr %3, align 8, !tbaa !4
  %17 = getelementptr inbounds nuw %struct._zend_execute_data, ptr %16, i32 0, i32 4
  store ptr %17, ptr %11, align 8, !tbaa !9
  call void @llvm.lifetime.start.p0(i64 8, ptr %12) #15
  call void @llvm.lifetime.start.p0(i64 8, ptr %13) #15
  call void @llvm.lifetime.start.p0(i64 4, ptr %14) #15
  %18 = load ptr, ptr %3, align 8, !tbaa !4
  %19 = getelementptr inbounds nuw %struct._zend_execute_data, ptr %18, i32 0, i32 4
  %20 = getelementptr inbounds nuw %struct._zval_struct, ptr %19, i32 0, i32 2
  %21 = load i32, ptr %20, align 4, !tbaa !13
  %22 = load ptr, ptr @php_sqlite3_sc_entry, align 8, !tbaa !61
  %23 = call i32 (i32, ptr, ...) @zend_parse_parameters(i32 noundef %21, ptr noundef @.str.34, ptr noundef %12, ptr noundef %22, ptr noundef %7, ptr noundef %9, ptr noundef %8, ptr noundef %10)
  %24 = icmp eq i32 %23, -1
  br i1 %24, label %25, label %31

25:                                               ; preds = %2
  br label %26

26:                                               ; preds = %25
  %27 = load ptr, ptr getelementptr inbounds nuw (%struct._zend_executor_globals, ptr @executor_globals, i32 0, i32 54), align 8, !tbaa !16
  %28 = icmp ne ptr %27, null
  call void @llvm.assume(i1 %28)
  store i32 1, ptr %15, align 4
  br label %135

29:                                               ; No predecessors!
  br label %30

30:                                               ; preds = %29
  br label %31

31:                                               ; preds = %30, %2
  %32 = load ptr, ptr %11, align 8, !tbaa !9
  %33 = getelementptr inbounds nuw %struct._zval_struct, ptr %32, i32 0, i32 0
  %34 = load ptr, ptr %33, align 8, !tbaa !13
  %35 = call ptr @php_sqlite3_db_from_obj(ptr noundef %34)
  store ptr %35, ptr %5, align 8, !tbaa !14
  %36 = load ptr, ptr %5, align 8, !tbaa !14
  %37 = icmp ne ptr %36, null
  br i1 %37, label %38, label %43

38:                                               ; preds = %31
  %39 = load ptr, ptr %5, align 8, !tbaa !14
  %40 = getelementptr inbounds nuw %struct._php_sqlite3_db_object, ptr %39, i32 0, i32 0
  %41 = load i8, ptr %40, align 8, !tbaa !48, !range !59, !noundef !60
  %42 = trunc i8 %41 to i1
  br i1 %42, label %49, label %43

43:                                               ; preds = %38, %31
  call void (ptr, ptr, ...) @zend_throw_error(ptr noundef null, ptr noundef @.str.8)
  br label %44

44:                                               ; preds = %43
  %45 = load ptr, ptr getelementptr inbounds nuw (%struct._zend_executor_globals, ptr @executor_globals, i32 0, i32 54), align 8, !tbaa !16
  %46 = icmp ne ptr %45, null
  call void @llvm.assume(i1 %46)
  store i32 1, ptr %15, align 4
  br label %135

47:                                               ; No predecessors!
  br label %48

48:                                               ; preds = %47
  br label %49

49:                                               ; preds = %48, %38
  %50 = load ptr, ptr %12, align 8, !tbaa !9
  %51 = getelementptr inbounds nuw %struct._zval_struct, ptr %50, i32 0, i32 0
  %52 = load ptr, ptr %51, align 8, !tbaa !13
  %53 = call ptr @php_sqlite3_db_from_obj(ptr noundef %52)
  store ptr %53, ptr %6, align 8, !tbaa !14
  %54 = load ptr, ptr %6, align 8, !tbaa !14
  %55 = icmp ne ptr %54, null
  br i1 %55, label %56, label %61

56:                                               ; preds = %49
  %57 = load ptr, ptr %6, align 8, !tbaa !14
  %58 = getelementptr inbounds nuw %struct._php_sqlite3_db_object, ptr %57, i32 0, i32 0
  %59 = load i8, ptr %58, align 8, !tbaa !48, !range !59, !noundef !60
  %60 = trunc i8 %59 to i1
  br i1 %60, label %67, label %61

61:                                               ; preds = %56, %49
  call void (ptr, ptr, ...) @zend_throw_error(ptr noundef null, ptr noundef @.str.8)
  br label %62

62:                                               ; preds = %61
  %63 = load ptr, ptr getelementptr inbounds nuw (%struct._zend_executor_globals, ptr @executor_globals, i32 0, i32 54), align 8, !tbaa !16
  %64 = icmp ne ptr %63, null
  call void @llvm.assume(i1 %64)
  store i32 1, ptr %15, align 4
  br label %135

65:                                               ; No predecessors!
  br label %66

66:                                               ; preds = %65
  br label %67

67:                                               ; preds = %66, %56
  %68 = load ptr, ptr %6, align 8, !tbaa !14
  %69 = getelementptr inbounds nuw %struct._php_sqlite3_db_object, ptr %68, i32 0, i32 2
  %70 = load ptr, ptr %69, align 8, !tbaa !64
  %71 = load ptr, ptr %8, align 8, !tbaa !62
  %72 = load ptr, ptr %5, align 8, !tbaa !14
  %73 = getelementptr inbounds nuw %struct._php_sqlite3_db_object, ptr %72, i32 0, i32 2
  %74 = load ptr, ptr %73, align 8, !tbaa !64
  %75 = load ptr, ptr %7, align 8, !tbaa !62
  %76 = call ptr @sqlite3_backup_init(ptr noundef %70, ptr noundef %71, ptr noundef %74, ptr noundef %75)
  store ptr %76, ptr %13, align 8, !tbaa !154
  %77 = load ptr, ptr %13, align 8, !tbaa !154
  %78 = icmp ne ptr %77, null
  br i1 %78, label %79, label %89

79:                                               ; preds = %67
  br label %80

80:                                               ; preds = %83, %79
  %81 = load ptr, ptr %13, align 8, !tbaa !154
  %82 = call i32 @sqlite3_backup_step(ptr noundef %81, i32 noundef -1)
  store i32 %82, ptr %14, align 4, !tbaa !63
  br label %83

83:                                               ; preds = %80
  %84 = load i32, ptr %14, align 4, !tbaa !63
  %85 = icmp eq i32 %84, 0
  br i1 %85, label %80, label %86

86:                                               ; preds = %83
  %87 = load ptr, ptr %13, align 8, !tbaa !154
  %88 = call i32 @sqlite3_backup_finish(ptr noundef %87)
  store i32 %88, ptr %14, align 4, !tbaa !63
  br label %94

89:                                               ; preds = %67
  %90 = load ptr, ptr %5, align 8, !tbaa !14
  %91 = getelementptr inbounds nuw %struct._php_sqlite3_db_object, ptr %90, i32 0, i32 2
  %92 = load ptr, ptr %91, align 8, !tbaa !64
  %93 = call i32 @sqlite3_errcode(ptr noundef %92)
  store i32 %93, ptr %14, align 4, !tbaa !63
  br label %94

94:                                               ; preds = %89, %86
  %95 = load i32, ptr %14, align 4, !tbaa !63
  %96 = icmp ne i32 %95, 0
  br i1 %96, label %97, label %126

97:                                               ; preds = %94
  %98 = load i32, ptr %14, align 4, !tbaa !63
  %99 = icmp eq i32 %98, 5
  br i1 %99, label %100, label %103

100:                                              ; preds = %97
  %101 = load ptr, ptr %5, align 8, !tbaa !14
  %102 = load i32, ptr %14, align 4, !tbaa !63
  call void (ptr, i32, ptr, ...) @php_sqlite3_error(ptr noundef %101, i32 noundef %102, ptr noundef @.str.35)
  br label %117

103:                                              ; preds = %97
  %104 = load i32, ptr %14, align 4, !tbaa !63
  %105 = icmp eq i32 %104, 6
  br i1 %105, label %106, label %109

106:                                              ; preds = %103
  %107 = load ptr, ptr %5, align 8, !tbaa !14
  %108 = load i32, ptr %14, align 4, !tbaa !63
  call void (ptr, i32, ptr, ...) @php_sqlite3_error(ptr noundef %107, i32 noundef %108, ptr noundef @.str.36)
  br label %116

109:                                              ; preds = %103
  %110 = load ptr, ptr %5, align 8, !tbaa !14
  %111 = load i32, ptr %14, align 4, !tbaa !63
  %112 = load ptr, ptr %5, align 8, !tbaa !14
  %113 = getelementptr inbounds nuw %struct._php_sqlite3_db_object, ptr %112, i32 0, i32 2
  %114 = load ptr, ptr %113, align 8, !tbaa !64
  %115 = call ptr @sqlite3_errmsg(ptr noundef %114)
  call void (ptr, i32, ptr, ...) @php_sqlite3_error(ptr noundef %110, i32 noundef %111, ptr noundef @.str.37, ptr noundef %115)
  br label %116

116:                                              ; preds = %109, %106
  br label %117

117:                                              ; preds = %116, %100
  br label %118

118:                                              ; preds = %117
  br label %119

119:                                              ; preds = %118
  %120 = load ptr, ptr %4, align 8, !tbaa !9
  %121 = getelementptr inbounds nuw %struct._zval_struct, ptr %120, i32 0, i32 1
  store i32 2, ptr %121, align 8, !tbaa !13
  br label %122

122:                                              ; preds = %119
  br label %123

123:                                              ; preds = %122
  store i32 1, ptr %15, align 4
  br label %135

124:                                              ; No predecessors!
  br label %125

125:                                              ; preds = %124
  br label %126

126:                                              ; preds = %125, %94
  br label %127

127:                                              ; preds = %126
  br label %128

128:                                              ; preds = %127
  %129 = load ptr, ptr %4, align 8, !tbaa !9
  %130 = getelementptr inbounds nuw %struct._zval_struct, ptr %129, i32 0, i32 1
  store i32 3, ptr %130, align 8, !tbaa !13
  br label %131

131:                                              ; preds = %128
  br label %132

132:                                              ; preds = %131
  store i32 1, ptr %15, align 4
  br label %135

133:                                              ; No predecessors!
  br label %134

134:                                              ; preds = %133
  store i32 0, ptr %15, align 4
  br label %135

135:                                              ; preds = %134, %132, %123, %62, %44, %26
  call void @llvm.lifetime.end.p0(i64 4, ptr %14) #15
  call void @llvm.lifetime.end.p0(i64 8, ptr %13) #15
  call void @llvm.lifetime.end.p0(i64 8, ptr %12) #15
  call void @llvm.lifetime.end.p0(i64 8, ptr %11) #15
  call void @llvm.lifetime.end.p0(i64 8, ptr %10) #15
  call void @llvm.lifetime.end.p0(i64 8, ptr %9) #15
  call void @llvm.lifetime.end.p0(i64 8, ptr %8) #15
  call void @llvm.lifetime.end.p0(i64 8, ptr %7) #15
  call void @llvm.lifetime.end.p0(i64 8, ptr %6) #15
  call void @llvm.lifetime.end.p0(i64 8, ptr %5) #15
  %136 = load i32, ptr %15, align 4
  switch i32 %136, label %138 [
    i32 0, label %137
    i32 1, label %137
  ]

137:                                              ; preds = %135, %135
  ret void

138:                                              ; preds = %135
  unreachable
}