; Function Attrs: nounwind uwtable
define hidden void @zim_SQLite3_backup(ptr noundef readonly captures(none) %0, ptr noundef writeonly captures(none) %1) #0 {
  %3 = alloca ptr, align 8
  %4 = alloca ptr, align 8
  %5 = alloca i64, align 8
  %6 = alloca i64, align 8
  %7 = alloca ptr, align 8
  call void @llvm.lifetime.start.p0(i64 8, ptr nonnull %3) #17
  store ptr @.str.27, ptr %3, align 8, !tbaa !58
  call void @llvm.lifetime.start.p0(i64 8, ptr nonnull %4) #17
  store ptr @.str.27, ptr %4, align 8, !tbaa !58
  call void @llvm.lifetime.start.p0(i64 8, ptr nonnull %5) #17
  call void @llvm.lifetime.start.p0(i64 8, ptr nonnull %6) #17
  call void @llvm.lifetime.start.p0(i64 8, ptr nonnull %7) #17
  %8 = getelementptr inbounds nuw i8, ptr %0, i64 44
  %9 = load i32, ptr %8, align 4, !tbaa !8
  %10 = load ptr, ptr @php_sqlite3_sc_entry, align 8, !tbaa !57
  %11 = call i32 (i32, ptr, ...) @zend_parse_parameters(i32 noundef %9, ptr noundef nonnull @.str.34, ptr noundef nonnull %7, ptr noundef %10, ptr noundef nonnull %3, ptr noundef nonnull %5, ptr noundef nonnull %4, ptr noundef nonnull %6) #17
  %12 = icmp eq i32 %11, -1
  br i1 %12, label %13, label %16

13:                                               ; preds = %2
  %14 = load ptr, ptr getelementptr inbounds nuw (i8, ptr @executor_globals, i64 960), align 8, !tbaa !9
  %15 = icmp ne ptr %14, null
  call void @llvm.assume(i1 %15)
  br label %59

16:                                               ; preds = %2
  %17 = getelementptr inbounds nuw i8, ptr %0, i64 32
  %18 = load ptr, ptr %17, align 8, !tbaa !8
  %19 = getelementptr inbounds i8, ptr %18, i64 -128
  %20 = load i8, ptr %19, align 8, !tbaa !44, !range !55, !noundef !56
  %21 = trunc nuw i8 %20 to i1
  br i1 %21, label %25, label %22

22:                                               ; preds = %16
  call void (ptr, ptr, ...) @zend_throw_error(ptr noundef null, ptr noundef nonnull @.str.8) #17
  %23 = load ptr, ptr getelementptr inbounds nuw (i8, ptr @executor_globals, i64 960), align 8, !tbaa !9
  %24 = icmp ne ptr %23, null
  call void @llvm.assume(i1 %24)
  br label %59

25:                                               ; preds = %16
  %26 = load ptr, ptr %7, align 8, !tbaa !103
  %27 = load ptr, ptr %26, align 8, !tbaa !8
  %28 = getelementptr inbounds i8, ptr %27, i64 -128
  %29 = load i8, ptr %28, align 8, !tbaa !44, !range !55, !noundef !56
  %30 = trunc nuw i8 %29 to i1
  br i1 %30, label %34, label %31

31:                                               ; preds = %25
  call void (ptr, ptr, ...) @zend_throw_error(ptr noundef null, ptr noundef nonnull @.str.8) #17
  %32 = load ptr, ptr getelementptr inbounds nuw (i8, ptr @executor_globals, i64 960), align 8, !tbaa !9
  %33 = icmp ne ptr %32, null
  call void @llvm.assume(i1 %33)
  br label %59

34:                                               ; preds = %25
  %35 = getelementptr inbounds i8, ptr %27, i64 -120
  %36 = load ptr, ptr %35, align 8, !tbaa !59
  %37 = load ptr, ptr %4, align 8, !tbaa !58
  %38 = getelementptr inbounds i8, ptr %18, i64 -120
  %39 = load ptr, ptr %38, align 8, !tbaa !59
  %40 = load ptr, ptr %3, align 8, !tbaa !58
  %41 = call ptr @sqlite3_backup_init(ptr noundef %36, ptr noundef %37, ptr noundef %39, ptr noundef %40) #17
  %.not28 = icmp eq ptr %41, null
  br i1 %.not28, label %46, label %.preheader

.preheader:                                       ; preds = %34, %.preheader
  %42 = call i32 @sqlite3_backup_step(ptr noundef nonnull %41, i32 noundef -1) #17
  %43 = icmp eq i32 %42, 0
  br i1 %43, label %.preheader, label %44

44:                                               ; preds = %.preheader
  %45 = call i32 @sqlite3_backup_finish(ptr noundef nonnull %41) #17
  br label %49

46:                                               ; preds = %34
  %47 = load ptr, ptr %38, align 8, !tbaa !59
  %48 = call i32 @sqlite3_errcode(ptr noundef %47) #17
  br label %49

49:                                               ; preds = %46, %44
  %.0 = phi i32 [ %45, %44 ], [ %48, %46 ]
  switch i32 %.0, label %52 [
    i32 0, label %57
    i32 5, label %50
    i32 6, label %51
  ]

50:                                               ; preds = %49
  call void (ptr, i32, ptr, ...) @php_sqlite3_error(ptr noundef nonnull %19, i32 noundef 5, ptr noundef nonnull @.str.35)
  br label %55

51:                                               ; preds = %49
  call void (ptr, i32, ptr, ...) @php_sqlite3_error(ptr noundef nonnull %19, i32 noundef 6, ptr noundef nonnull @.str.36)
  br label %55

52:                                               ; preds = %49
  %53 = load ptr, ptr %38, align 8, !tbaa !59
  %54 = call ptr @sqlite3_errmsg(ptr noundef %53) #17
  call void (ptr, i32, ptr, ...) @php_sqlite3_error(ptr noundef nonnull %19, i32 noundef %.0, ptr noundef nonnull @.str.37, ptr noundef %54)
  br label %55

55:                                               ; preds = %51, %52, %50
  %56 = getelementptr inbounds nuw i8, ptr %1, i64 8
  store i32 2, ptr %56, align 8, !tbaa !8
  br label %59

57:                                               ; preds = %49
  %58 = getelementptr inbounds nuw i8, ptr %1, i64 8
  store i32 3, ptr %58, align 8, !tbaa !8
  br label %59

59:                                               ; preds = %57, %55, %31, %22, %13
  call void @llvm.lifetime.end.p0(i64 8, ptr nonnull %7) #17
  call void @llvm.lifetime.end.p0(i64 8, ptr nonnull %6) #17
  call void @llvm.lifetime.end.p0(i64 8, ptr nonnull %5) #17
  call void @llvm.lifetime.end.p0(i64 8, ptr nonnull %4) #17
  call void @llvm.lifetime.end.p0(i64 8, ptr nonnull %3) #17
  ret void
}